SF:/home/vpayno/git_vpayno/exercism-workspace/rust/protein-translation/src/lib.rs
FN:8,_RNvMCsPuTXoCFluQ_19protein_translationNtB2_10CodonsInfo8name_for
FN:26,_RNvMCsPuTXoCFluQ_19protein_translationNtB2_10CodonsInfo6of_rna
FN:32,_RNCNvMCsPuTXoCFluQ_19protein_translationNtB4_10CodonsInfo6of_rna0B4_
FN:33,_RNCNvMCsPuTXoCFluQ_19protein_translationNtB4_10CodonsInfo6of_rnas_0B4_
FN:38,_RNvCsPuTXoCFluQ_19protein_translation5parse
FN:8,_RNvMCsbkZ3mOJQIPs_19protein_translationNtB2_10CodonsInfo8name_for
FN:26,_RNvMCsbkZ3mOJQIPs_19protein_translationNtB2_10CodonsInfo6of_rna
FN:32,_RNCNvMCsbkZ3mOJQIPs_19protein_translationNtB4_10CodonsInfo6of_rna0B4_
FN:33,_RNCNvMCsbkZ3mOJQIPs_19protein_translationNtB4_10CodonsInfo6of_rnas_0B4_
FN:38,_RNvCsbkZ3mOJQIPs_19protein_translation5parse
FNDA:54,_RNvMCsPuTXoCFluQ_19protein_translationNtB2_10CodonsInfo8name_for
FNDA:29,_RNvMCsPuTXoCFluQ_19protein_translationNtB2_10CodonsInfo6of_rna
FNDA:42,_RNCNvMCsPuTXoCFluQ_19protein_translationNtB4_10CodonsInfo6of_rna0B4_
FNDA:42,_RNCNvMCsPuTXoCFluQ_19protein_translationNtB4_10CodonsInfo6of_rnas_0B4_
FNDA:41,_RNvCsPuTXoCFluQ_19protein_translation5parse
FNDA:0,_RNvMCsbkZ3mOJQIPs_19protein_translationNtB2_10CodonsInfo8name_for
FNDA:0,_RNvMCsbkZ3mOJQIPs_19protein_translationNtB2_10CodonsInfo6of_rna
FNDA:0,_RNCNvMCsbkZ3mOJQIPs_19protein_translationNtB4_10CodonsInfo6of_rna0B4_
FNDA:0,_RNCNvMCsbkZ3mOJQIPs_19protein_translationNtB4_10CodonsInfo6of_rnas_0B4_
FNDA:0,_RNvCsbkZ3mOJQIPs_19protein_translation5parse
FNF:5
FNH:5
DA:8,54
DA:9,54
DA:10,54
DA:11,54
DA:12,54
DA:13,54
DA:14,54
DA:15,54
DA:16,54
DA:17,54
DA:18,54
DA:19,54
DA:20,54
DA:21,54
DA:22,54
DA:23,54
DA:24,54
DA:26,29
DA:27,29
DA:28,29
DA:29,29
DA:30,29
DA:31,29
DA:32,42
DA:33,42
DA:34,29
DA:35,29
DA:38,41
DA:39,41
DA:40,41
DA:41,41
DA:42,41
DA:43,41
BRF:0
BRH:0
LF:35
LH:35
end_of_record