SF:/home/vpayno/git_vpayno/exercism-workspace/rust/health-statistics/src/lib.rs
FN:20,_RNvMCs179wbFXatuM_17health_statisticsNtB2_4User6weight
FN:16,_RNvMCs179wbFXatuM_17health_statisticsNtB2_4User3age
FN:24,_RNvMCs179wbFXatuM_17health_statisticsNtB2_4User7set_age
FN:28,_RNvMCs179wbFXatuM_17health_statisticsNtB2_4User10set_weight
FN:8,_RNvMCs179wbFXatuM_17health_statisticsNtB2_4User3new
FN:12,_RNvMCs179wbFXatuM_17health_statisticsNtB2_4User4name
FN:20,_RNvMCs29kQdASgeaT_17health_statisticsNtB2_4User6weight
FN:16,_RNvMCs29kQdASgeaT_17health_statisticsNtB2_4User3age
FN:24,_RNvMCs29kQdASgeaT_17health_statisticsNtB2_4User7set_age
FN:28,_RNvMCs29kQdASgeaT_17health_statisticsNtB2_4User10set_weight
FN:8,_RNvMCs29kQdASgeaT_17health_statisticsNtB2_4User3new
FN:12,_RNvMCs29kQdASgeaT_17health_statisticsNtB2_4User4name
FNDA:2,_RNvMCs179wbFXatuM_17health_statisticsNtB2_4User6weight
FNDA:2,_RNvMCs179wbFXatuM_17health_statisticsNtB2_4User3age
FNDA:1,_RNvMCs179wbFXatuM_17health_statisticsNtB2_4User7set_age
FNDA:1,_RNvMCs179wbFXatuM_17health_statisticsNtB2_4User10set_weight
FNDA:5,_RNvMCs179wbFXatuM_17health_statisticsNtB2_4User3new
FNDA:1,_RNvMCs179wbFXatuM_17health_statisticsNtB2_4User4name
FNDA:0,_RNvMCs29kQdASgeaT_17health_statisticsNtB2_4User6weight
FNDA:0,_RNvMCs29kQdASgeaT_17health_statisticsNtB2_4User3age
FNDA:0,_RNvMCs29kQdASgeaT_17health_statisticsNtB2_4User7set_age
FNDA:0,_RNvMCs29kQdASgeaT_17health_statisticsNtB2_4User10set_weight
FNDA:0,_RNvMCs29kQdASgeaT_17health_statisticsNtB2_4User3new
FNDA:0,_RNvMCs29kQdASgeaT_17health_statisticsNtB2_4User4name
FNF:6
FNH:6
DA:8,5
DA:9,5
DA:10,5
DA:12,1
DA:13,1
DA:14,1
DA:16,2
DA:17,2
DA:18,2
DA:20,2
DA:21,2
DA:22,2
DA:24,1
DA:25,1
DA:26,1
DA:28,1
DA:29,1
DA:30,1
BRF:0
BRH:0
LF:18
LH:18
end_of_record