SF:/home/vpayno/git_vpayno/exercism-workspace/rust/bob/src/lib.rs
FN:44,_RNCNvCs922sMVsrOnA_3bob10is_yellings_0B3_
FN:38,_RNCNvCs922sMVsrOnA_3bob10is_yelling0B3_
FN:54,_RNCNvCs922sMVsrOnA_3bob10is_yellings1_0B3_
FN:1,_RNvCs922sMVsrOnA_3bob5reply
FN:69,_RNvCs922sMVsrOnA_3bob11is_question
FN:35,_RNvCs922sMVsrOnA_3bob10is_yelling
FN:74,_RNvCs922sMVsrOnA_3bob10is_silence
FN:53,_RNCNvCs922sMVsrOnA_3bob10is_yellings0_0B3_
FN:38,_RNCNvCsfc9cwAHnVAS_3bob10is_yelling0B3_
FN:1,_RNvCsfc9cwAHnVAS_3bob5reply
FN:69,_RNvCsfc9cwAHnVAS_3bob11is_question
FN:35,_RNvCsfc9cwAHnVAS_3bob10is_yelling
FN:44,_RNCNvCsfc9cwAHnVAS_3bob10is_yellings_0B3_
FN:74,_RNvCsfc9cwAHnVAS_3bob10is_silence
FN:53,_RNCNvCsfc9cwAHnVAS_3bob10is_yellings0_0B3_
FN:54,_RNCNvCsfc9cwAHnVAS_3bob10is_yellings1_0B3_
FNDA:270,_RNCNvCs922sMVsrOnA_3bob10is_yellings_0B3_
FNDA:1347,_RNCNvCs922sMVsrOnA_3bob10is_yelling0B3_
FNDA:128,_RNCNvCs922sMVsrOnA_3bob10is_yellings1_0B3_
FNDA:25,_RNvCs922sMVsrOnA_3bob5reply
FNDA:26,_RNvCs922sMVsrOnA_3bob11is_question
FNDA:56,_RNvCs922sMVsrOnA_3bob10is_yelling
FNDA:25,_RNvCs922sMVsrOnA_3bob10is_silence
FNDA:204,_RNCNvCs922sMVsrOnA_3bob10is_yellings0_0B3_
FNDA:0,_RNCNvCsfc9cwAHnVAS_3bob10is_yelling0B3_
FNDA:0,_RNvCsfc9cwAHnVAS_3bob5reply
FNDA:0,_RNvCsfc9cwAHnVAS_3bob11is_question
FNDA:0,_RNvCsfc9cwAHnVAS_3bob10is_yelling
FNDA:0,_RNCNvCsfc9cwAHnVAS_3bob10is_yellings_0B3_
FNDA:0,_RNvCsfc9cwAHnVAS_3bob10is_silence
FNDA:0,_RNCNvCsfc9cwAHnVAS_3bob10is_yellings0_0B3_
FNDA:0,_RNCNvCsfc9cwAHnVAS_3bob10is_yellings1_0B3_
FNF:8
FNH:8
DA:1,25
DA:2,25
DA:3,25
DA:4,25
DA:6,25
DA:7,4
DA:8,4
DA:12,21
DA:13,1
DA:14,1
DA:18,20
DA:19,5
DA:20,5
DA:24,15
DA:25,7
DA:26,7
DA:30,8
DA:32,25
DA:35,56
DA:36,56
DA:38,1347
DA:39,9
DA:40,9
DA:44,270
DA:45,36
DA:46,36
DA:50,11
DA:51,11
DA:52,11
DA:53,204
DA:54,128
DA:56,11
DA:57,11
DA:62,0
DA:63,0
DA:66,56
DA:69,26
DA:70,26
DA:71,26
DA:74,25
DA:75,25
DA:76,25
BRF:0
BRH:0
LF:46
LH:44
end_of_record