SF:/home/vpayno/git_vpayno/exercism-workspace/rust/space-age/src/lib.rs
FN:24,_RNvYNtCsdkP4hzOkaqH_9space_age5VenusNtB4_6Planet12years_duringCsbmAb4GglenH_9space_age
FN:24,_RNvYNtCsdkP4hzOkaqH_9space_age4MarsNtB4_6Planet12years_duringCsbmAb4GglenH_9space_age
FN:24,_RNvYNtCsdkP4hzOkaqH_9space_age6SaturnNtB4_6Planet12years_duringCsbmAb4GglenH_9space_age
FN:24,_RNvYNtCsdkP4hzOkaqH_9space_age6UranusNtB4_6Planet12years_duringCsbmAb4GglenH_9space_age
FN:24,_RNvYNtCsdkP4hzOkaqH_9space_age7JupiterNtB4_6Planet12years_duringCsbmAb4GglenH_9space_age
FN:24,_RNvYNtCsdkP4hzOkaqH_9space_age7MercuryNtB4_6Planet12years_duringCsbmAb4GglenH_9space_age
FN:24,_RNvYNtCsdkP4hzOkaqH_9space_age5EarthNtB4_6Planet12years_duringCsbmAb4GglenH_9space_age
FN:24,_RNvYNtCsdkP4hzOkaqH_9space_age7NeptuneNtB4_6Planet12years_duringCsbmAb4GglenH_9space_age
FN:65,_RNvXs4_CsdkP4hzOkaqH_9space_ageNtB5_7JupiterNtB5_6Planet14orbital_period
FN:65,_RNvXs0_CsdkP4hzOkaqH_9space_ageNtB5_7MercuryNtB5_6Planet14orbital_period
FN:65,_RNvXs7_CsdkP4hzOkaqH_9space_ageNtB5_7NeptuneNtB5_6Planet14orbital_period
FN:65,_RNvXs3_CsdkP4hzOkaqH_9space_ageNtB5_4MarsNtB5_6Planet14orbital_period
FN:5,_RNvXs_CsdkP4hzOkaqH_9space_ageNtB4_8DurationNtNtCscS4HM4tpJt3_4core3fmt5Debug3fmt
FN:65,_RNvXs6_CsdkP4hzOkaqH_9space_ageNtB5_6UranusNtB5_6Planet14orbital_period
FN:65,_RNvXs2_CsdkP4hzOkaqH_9space_ageNtB5_5EarthNtB5_6Planet14orbital_period
FN:24,_RNvYpNtCsdkP4hzOkaqH_9space_age6Planet12years_duringB5_
FN:65,_RNvXs5_CsdkP4hzOkaqH_9space_ageNtB5_6SaturnNtB5_6Planet14orbital_period
FN:65,_RNvXs1_CsdkP4hzOkaqH_9space_ageNtB5_5VenusNtB5_6Planet14orbital_period
FN:13,_RNvXCsdkP4hzOkaqH_9space_ageNtB2_8DurationINtNtCscS4HM4tpJt3_4core7convert4FromyE4from
FN:65,_RNvXs4_Cs20mYjjdnGHp_9space_ageNtB5_7JupiterNtB5_6Planet14orbital_period
FN:65,_RNvXs0_Cs20mYjjdnGHp_9space_ageNtB5_7MercuryNtB5_6Planet14orbital_period
FN:65,_RNvXs7_Cs20mYjjdnGHp_9space_ageNtB5_7NeptuneNtB5_6Planet14orbital_period
FN:65,_RNvXs3_Cs20mYjjdnGHp_9space_ageNtB5_4MarsNtB5_6Planet14orbital_period
FN:5,_RNvXs_Cs20mYjjdnGHp_9space_ageNtB4_8DurationNtNtCscS4HM4tpJt3_4core3fmt5Debug3fmt
FN:65,_RNvXs6_Cs20mYjjdnGHp_9space_ageNtB5_6UranusNtB5_6Planet14orbital_period
FN:65,_RNvXs2_Cs20mYjjdnGHp_9space_ageNtB5_5EarthNtB5_6Planet14orbital_period
FN:65,_RNvXs5_Cs20mYjjdnGHp_9space_ageNtB5_6SaturnNtB5_6Planet14orbital_period
FN:65,_RNvXs1_Cs20mYjjdnGHp_9space_ageNtB5_5VenusNtB5_6Planet14orbital_period
FN:13,_RNvXCs20mYjjdnGHp_9space_ageNtB2_8DurationINtNtCscS4HM4tpJt3_4core7convert4FromyE4from
FN:24,_RNvYpNtCs20mYjjdnGHp_9space_age6Planet12years_duringB5_
FNDA:1,_RNvYNtCsdkP4hzOkaqH_9space_age5VenusNtB4_6Planet12years_duringCsbmAb4GglenH_9space_age
FNDA:1,_RNvYNtCsdkP4hzOkaqH_9space_age4MarsNtB4_6Planet12years_duringCsbmAb4GglenH_9space_age
FNDA:1,_RNvYNtCsdkP4hzOkaqH_9space_age6SaturnNtB4_6Planet12years_duringCsbmAb4GglenH_9space_age
FNDA:1,_RNvYNtCsdkP4hzOkaqH_9space_age6UranusNtB4_6Planet12years_duringCsbmAb4GglenH_9space_age
FNDA:1,_RNvYNtCsdkP4hzOkaqH_9space_age7JupiterNtB4_6Planet12years_duringCsbmAb4GglenH_9space_age
FNDA:1,_RNvYNtCsdkP4hzOkaqH_9space_age7MercuryNtB4_6Planet12years_duringCsbmAb4GglenH_9space_age
FNDA:1,_RNvYNtCsdkP4hzOkaqH_9space_age5EarthNtB4_6Planet12years_duringCsbmAb4GglenH_9space_age
FNDA:1,_RNvYNtCsdkP4hzOkaqH_9space_age7NeptuneNtB4_6Planet12years_duringCsbmAb4GglenH_9space_age
FNDA:1,_RNvXs4_CsdkP4hzOkaqH_9space_ageNtB5_7JupiterNtB5_6Planet14orbital_period
FNDA:1,_RNvXs0_CsdkP4hzOkaqH_9space_ageNtB5_7MercuryNtB5_6Planet14orbital_period
FNDA:1,_RNvXs7_CsdkP4hzOkaqH_9space_ageNtB5_7NeptuneNtB5_6Planet14orbital_period
FNDA:1,_RNvXs3_CsdkP4hzOkaqH_9space_ageNtB5_4MarsNtB5_6Planet14orbital_period
FNDA:0,_RNvXs_CsdkP4hzOkaqH_9space_ageNtB4_8DurationNtNtCscS4HM4tpJt3_4core3fmt5Debug3fmt
FNDA:1,_RNvXs6_CsdkP4hzOkaqH_9space_ageNtB5_6UranusNtB5_6Planet14orbital_period
FNDA:1,_RNvXs2_CsdkP4hzOkaqH_9space_ageNtB5_5EarthNtB5_6Planet14orbital_period
FNDA:0,_RNvYpNtCsdkP4hzOkaqH_9space_age6Planet12years_duringB5_
FNDA:1,_RNvXs5_CsdkP4hzOkaqH_9space_ageNtB5_6SaturnNtB5_6Planet14orbital_period
FNDA:1,_RNvXs1_CsdkP4hzOkaqH_9space_ageNtB5_5VenusNtB5_6Planet14orbital_period
FNDA:8,_RNvXCsdkP4hzOkaqH_9space_ageNtB2_8DurationINtNtCscS4HM4tpJt3_4core7convert4FromyE4from
FNDA:0,_RNvXs4_Cs20mYjjdnGHp_9space_ageNtB5_7JupiterNtB5_6Planet14orbital_period
FNDA:0,_RNvXs0_Cs20mYjjdnGHp_9space_ageNtB5_7MercuryNtB5_6Planet14orbital_period
FNDA:0,_RNvXs7_Cs20mYjjdnGHp_9space_ageNtB5_7NeptuneNtB5_6Planet14orbital_period
FNDA:0,_RNvXs3_Cs20mYjjdnGHp_9space_ageNtB5_4MarsNtB5_6Planet14orbital_period
FNDA:0,_RNvXs_Cs20mYjjdnGHp_9space_ageNtB4_8DurationNtNtCscS4HM4tpJt3_4core3fmt5Debug3fmt
FNDA:0,_RNvXs6_Cs20mYjjdnGHp_9space_ageNtB5_6UranusNtB5_6Planet14orbital_period
FNDA:0,_RNvXs2_Cs20mYjjdnGHp_9space_ageNtB5_5EarthNtB5_6Planet14orbital_period
FNDA:0,_RNvXs5_Cs20mYjjdnGHp_9space_ageNtB5_6SaturnNtB5_6Planet14orbital_period
FNDA:0,_RNvXs1_Cs20mYjjdnGHp_9space_ageNtB5_5VenusNtB5_6Planet14orbital_period
FNDA:0,_RNvXCs20mYjjdnGHp_9space_ageNtB2_8DurationINtNtCscS4HM4tpJt3_4core7convert4FromyE4from
FNDA:0,_RNvYpNtCs20mYjjdnGHp_9space_age6Planet12years_duringB5_
FNF:4
FNH:3
DA:5,0
DA:13,8
DA:14,8
DA:15,8
DA:16,8
DA:17,8
DA:24,8
DA:25,8
DA:26,8
DA:65,8
DA:66,8
DA:67,8
BRF:0
BRH:0
LF:12
LH:11
end_of_record