SF:/home/vpayno/git_vpayno/exercism-workspace/rust/luhn/src/lib.rs
FN:101,_RNvCsacipeDqRJaK_4luhn16step_one_and_two
FN:167,_RNvCsacipeDqRJaK_4luhn29extract_digits_from_str_slice
FN:147,_RNvCsacipeDqRJaK_4luhn3sum
FN:169,_RNCNvCsacipeDqRJaK_4luhn29extract_digits_from_str_slice0B3_
FN:170,_RNCNvCsacipeDqRJaK_4luhn29extract_digits_from_str_slices_0B3_
FN:62,_RNvCsacipeDqRJaK_4luhn8is_valid
FN:200,_RNvCsacipeDqRJaK_4luhn26is_only_numbers_and_spaces
FN:101,_RNvCsPydIKOXQ6R_4luhn16step_one_and_two
FN:167,_RNvCsPydIKOXQ6R_4luhn29extract_digits_from_str_slice
FN:147,_RNvCsPydIKOXQ6R_4luhn3sum
FN:169,_RNCNvCsPydIKOXQ6R_4luhn29extract_digits_from_str_slice0B3_
FN:170,_RNCNvCsPydIKOXQ6R_4luhn29extract_digits_from_str_slices_0B3_
FN:62,_RNvCsPydIKOXQ6R_4luhn8is_valid
FN:200,_RNvCsPydIKOXQ6R_4luhn26is_only_numbers_and_spaces
FNDA:10,_RNvCsacipeDqRJaK_4luhn16step_one_and_two
FNDA:10,_RNvCsacipeDqRJaK_4luhn29extract_digits_from_str_slice
FNDA:10,_RNvCsacipeDqRJaK_4luhn3sum
FNDA:81,_RNCNvCsacipeDqRJaK_4luhn29extract_digits_from_str_slice0B3_
FNDA:68,_RNCNvCsacipeDqRJaK_4luhn29extract_digits_from_str_slices_0B3_
FNDA:21,_RNvCsacipeDqRJaK_4luhn8is_valid
FNDA:17,_RNvCsacipeDqRJaK_4luhn26is_only_numbers_and_spaces
FNDA:0,_RNvCsPydIKOXQ6R_4luhn16step_one_and_two
FNDA:0,_RNvCsPydIKOXQ6R_4luhn29extract_digits_from_str_slice
FNDA:0,_RNvCsPydIKOXQ6R_4luhn3sum
FNDA:0,_RNCNvCsPydIKOXQ6R_4luhn29extract_digits_from_str_slice0B3_
FNDA:0,_RNCNvCsPydIKOXQ6R_4luhn29extract_digits_from_str_slices_0B3_
FNDA:0,_RNvCsPydIKOXQ6R_4luhn8is_valid
FNDA:0,_RNvCsPydIKOXQ6R_4luhn26is_only_numbers_and_spaces
FNF:7
FNH:7
DA:62,21
DA:63,21
DA:64,2
DA:65,19
DA:66,19
DA:67,19
DA:68,0
DA:69,19
DA:70,19
DA:71,19
DA:72,2
DA:73,17
DA:74,17
DA:75,17
DA:76,7
DA:77,10
DA:78,10
DA:79,10
DA:80,10
DA:81,10
DA:82,10
DA:83,10
DA:84,10
DA:85,10
DA:86,21
DA:101,10
DA:102,10
DA:104,32
DA:105,31
DA:106,31
DA:107,31
DA:108,16
DA:109,16
DA:111,31
DA:112,31
DA:113,31
DA:114,9
DA:115,22
DA:118,10
DA:119,10
DA:147,10
DA:148,10
DA:149,10
DA:167,10
DA:168,10
DA:169,81
DA:170,68
DA:171,10
DA:172,10
DA:173,10
DA:200,17
DA:201,105
DA:202,105
DA:203,7
DA:204,98
DA:207,10
DA:208,17
BRF:0
BRH:0
LF:59
LH:58
end_of_record
SF:/home/vpayno/git_vpayno/exercism-workspace/rust/luhn/src/main.rs
FN:3,_RNvCsanjjq2PR1D_4luhn4main
FN:3,_RNvCsgmSS16xrxIQ_4luhn4main
FNDA:0,_RNvCsanjjq2PR1D_4luhn4main
FNDA:0,_RNvCsgmSS16xrxIQ_4luhn4main
FNF:1
FNH:0
DA:3,0
DA:4,0
DA:5,0
DA:6,0
DA:7,0
DA:8,0
DA:9,0
DA:10,0
DA:11,0
DA:12,0
DA:13,0
DA:14,0
DA:15,0
DA:16,0
DA:17,0
DA:18,0
DA:19,0
DA:20,0
DA:21,0
DA:22,0
DA:23,0
DA:24,0
DA:25,0
BRF:0
BRH:0
LF:23
LH:0
end_of_record