SF:/home/vpayno/git_vpayno/exercism-workspace/rust/luhn-trait/src/lib.rs
FN:23,_RNvXs0_Cs5qdxllgkmwL_10luhn_traithNtB5_4Luhn10valid_luhn
FN:38,_RNvXs3_Cs5qdxllgkmwL_10luhn_traityNtB5_4Luhn10valid_luhn
FN:78,_RNvCs5qdxllgkmwL_10luhn_trait3sum
FN:82,_RNvCs5qdxllgkmwL_10luhn_trait29extract_digits_from_str_slice
FN:28,_RNvXs1_Cs5qdxllgkmwL_10luhn_traittNtB5_4Luhn10valid_luhn
FN:43,_RNvXs4_Cs5qdxllgkmwL_10luhn_traitjNtB5_4Luhn10valid_luhn
FN:84,_RNCNvCs5qdxllgkmwL_10luhn_trait29extract_digits_from_str_slice0B3_
FN:18,_RNvXs_Cs5qdxllgkmwL_10luhn_traitNtNtCseUNaFxoWMgP_5alloc6string6StringNtB4_4Luhn10valid_luhn
FN:33,_RNvXs2_Cs5qdxllgkmwL_10luhn_traitmNtB5_4Luhn10valid_luhn
FN:48,_RNvCs5qdxllgkmwL_10luhn_trait14is_luhn_number
FN:58,_RNvCs5qdxllgkmwL_10luhn_trait16step_one_and_two
FN:6,_RNvXCs5qdxllgkmwL_10luhn_traitReNtB2_4Luhn10valid_luhn
FN:85,_RNCNvCs5qdxllgkmwL_10luhn_trait29extract_digits_from_str_slices_0B3_
FN:90,_RNvCs5qdxllgkmwL_10luhn_trait26is_only_numbers_and_spaces
FN:23,_RNvXs0_Cs9UQeYrlCNkx_10luhn_traithNtB5_4Luhn10valid_luhn
FN:38,_RNvXs3_Cs9UQeYrlCNkx_10luhn_traityNtB5_4Luhn10valid_luhn
FN:78,_RNvCs9UQeYrlCNkx_10luhn_trait3sum
FN:82,_RNvCs9UQeYrlCNkx_10luhn_trait29extract_digits_from_str_slice
FN:28,_RNvXs1_Cs9UQeYrlCNkx_10luhn_traittNtB5_4Luhn10valid_luhn
FN:43,_RNvXs4_Cs9UQeYrlCNkx_10luhn_traitjNtB5_4Luhn10valid_luhn
FN:84,_RNCNvCs9UQeYrlCNkx_10luhn_trait29extract_digits_from_str_slice0B3_
FN:18,_RNvXs_Cs9UQeYrlCNkx_10luhn_traitNtNtCseUNaFxoWMgP_5alloc6string6StringNtB4_4Luhn10valid_luhn
FN:33,_RNvXs2_Cs9UQeYrlCNkx_10luhn_traitmNtB5_4Luhn10valid_luhn
FN:48,_RNvCs9UQeYrlCNkx_10luhn_trait14is_luhn_number
FN:58,_RNvCs9UQeYrlCNkx_10luhn_trait16step_one_and_two
FN:6,_RNvXCs9UQeYrlCNkx_10luhn_traitReNtB2_4Luhn10valid_luhn
FN:90,_RNvCs9UQeYrlCNkx_10luhn_trait26is_only_numbers_and_spaces
FN:85,_RNCNvCs9UQeYrlCNkx_10luhn_trait29extract_digits_from_str_slices_0B3_
FNDA:0,_RNvXs0_Cs5qdxllgkmwL_10luhn_traithNtB5_4Luhn10valid_luhn
FNDA:0,_RNvXs3_Cs5qdxllgkmwL_10luhn_traityNtB5_4Luhn10valid_luhn
FNDA:0,_RNvCs5qdxllgkmwL_10luhn_trait3sum
FNDA:0,_RNvCs5qdxllgkmwL_10luhn_trait29extract_digits_from_str_slice
FNDA:0,_RNvXs1_Cs5qdxllgkmwL_10luhn_traittNtB5_4Luhn10valid_luhn
FNDA:0,_RNvXs4_Cs5qdxllgkmwL_10luhn_traitjNtB5_4Luhn10valid_luhn
FNDA:0,_RNCNvCs5qdxllgkmwL_10luhn_trait29extract_digits_from_str_slice0B3_
FNDA:0,_RNvXs_Cs5qdxllgkmwL_10luhn_traitNtNtCseUNaFxoWMgP_5alloc6string6StringNtB4_4Luhn10valid_luhn
FNDA:0,_RNvXs2_Cs5qdxllgkmwL_10luhn_traitmNtB5_4Luhn10valid_luhn
FNDA:0,_RNvCs5qdxllgkmwL_10luhn_trait14is_luhn_number
FNDA:0,_RNvCs5qdxllgkmwL_10luhn_trait16step_one_and_two
FNDA:0,_RNvXCs5qdxllgkmwL_10luhn_traitReNtB2_4Luhn10valid_luhn
FNDA:0,_RNCNvCs5qdxllgkmwL_10luhn_trait29extract_digits_from_str_slices_0B3_
FNDA:0,_RNvCs5qdxllgkmwL_10luhn_trait26is_only_numbers_and_spaces
FNDA:2,_RNvXs0_Cs9UQeYrlCNkx_10luhn_traithNtB5_4Luhn10valid_luhn
FNDA:2,_RNvXs3_Cs9UQeYrlCNkx_10luhn_traityNtB5_4Luhn10valid_luhn
FNDA:15,_RNvCs9UQeYrlCNkx_10luhn_trait3sum
FNDA:15,_RNvCs9UQeYrlCNkx_10luhn_trait29extract_digits_from_str_slice
FNDA:2,_RNvXs1_Cs9UQeYrlCNkx_10luhn_traittNtB5_4Luhn10valid_luhn
FNDA:2,_RNvXs4_Cs9UQeYrlCNkx_10luhn_traitjNtB5_4Luhn10valid_luhn
FNDA:143,_RNCNvCs9UQeYrlCNkx_10luhn_trait29extract_digits_from_str_slice0B3_
FNDA:12,_RNvXs_Cs9UQeYrlCNkx_10luhn_traitNtNtCseUNaFxoWMgP_5alloc6string6StringNtB4_4Luhn10valid_luhn
FNDA:2,_RNvXs2_Cs9UQeYrlCNkx_10luhn_traitmNtB5_4Luhn10valid_luhn
FNDA:15,_RNvCs9UQeYrlCNkx_10luhn_trait14is_luhn_number
FNDA:15,_RNvCs9UQeYrlCNkx_10luhn_trait16step_one_and_two
FNDA:15,_RNvXCs9UQeYrlCNkx_10luhn_traitReNtB2_4Luhn10valid_luhn
FNDA:15,_RNvCs9UQeYrlCNkx_10luhn_trait26is_only_numbers_and_spaces
FNDA:135,_RNCNvCs9UQeYrlCNkx_10luhn_trait29extract_digits_from_str_slices_0B3_
FNF:14
FNH:14
DA:6,15
DA:7,15
DA:8,15
DA:9,15
DA:10,15
DA:11,15
DA:12,15
DA:14,15
DA:18,12
DA:19,12
DA:20,12
DA:23,2
DA:24,2
DA:25,2
DA:28,2
DA:29,2
DA:30,2
DA:33,2
DA:34,2
DA:35,2
DA:38,2
DA:39,2
DA:40,2
DA:43,2
DA:44,2
DA:45,2
DA:48,15
DA:49,15
DA:50,15
DA:51,15
DA:52,15
DA:53,15
DA:54,15
DA:55,15
DA:56,15
DA:58,15
DA:59,15
DA:61,63
DA:62,63
DA:63,63
DA:64,63
DA:65,27
DA:66,36
DA:68,63
DA:69,63
DA:70,63
DA:71,15
DA:72,48
DA:75,15
DA:76,15
DA:78,15
DA:79,15
DA:80,15
DA:82,15
DA:83,15
DA:84,143
DA:85,135
DA:86,15
DA:87,15
DA:88,15
DA:90,15
DA:91,143
DA:92,143
DA:93,0
DA:94,143
DA:97,15
DA:98,15
BRF:0
BRH:0
LF:69
LH:68
end_of_record