SF:/home/vpayno/git_vpayno/exercism-workspace/rust/simple-linked-list/src/lib.rs
FN:97,_RNvXs0_CsiFvAleE1cUa_18simple_linked_listINtNtCseUNaFxoWMgP_5alloc3vec3VeclEINtNtCskHJcJaiv42W_4core7convert4FromINtB5_16SimpleLinkedListlEE4fromCs19L4n8JNNMr_18simple_linked_list
FN:72,_RINvXs_CsiFvAleE1cUa_18simple_linked_listINtB5_16SimpleLinkedListReEINtNtNtNtCskHJcJaiv42W_4core4iter6traits7collect12FromIteratorB11_E9from_iterINtNtNtCseUNaFxoWMgP_5alloc3vec5drain5DrainB11_EECs19L4n8JNNMr_18simple_linked_list
FN:16,_RNvMCsiFvAleE1cUa_18simple_linked_listINtB2_16SimpleLinkedListReE3newCs19L4n8JNNMr_18simple_linked_list
FN:28,_RNvMCsiFvAleE1cUa_18simple_linked_listINtB2_16SimpleLinkedListmE8is_emptyCs19L4n8JNNMr_18simple_linked_list
FN:32,_RNvMCsiFvAleE1cUa_18simple_linked_listINtB2_16SimpleLinkedListmE3lenCs19L4n8JNNMr_18simple_linked_list
FN:58,_RNvMCsiFvAleE1cUa_18simple_linked_listINtB2_16SimpleLinkedListmE3revCs19L4n8JNNMr_18simple_linked_list
FN:45,_RNvMCsiFvAleE1cUa_18simple_linked_listINtB2_16SimpleLinkedListmE3popCs19L4n8JNNMr_18simple_linked_list
FN:36,_RNvMCsiFvAleE1cUa_18simple_linked_listINtB2_16SimpleLinkedListReE4pushCs19L4n8JNNMr_18simple_linked_list
FN:54,_RNCNvMCsiFvAleE1cUa_18simple_linked_listINtB4_16SimpleLinkedListmE4peek0Cs19L4n8JNNMr_18simple_linked_list
FN:46,_RNCNvMCsiFvAleE1cUa_18simple_linked_listINtB4_16SimpleLinkedListReE3pop0Cs19L4n8JNNMr_18simple_linked_list
FN:16,_RNvMCsiFvAleE1cUa_18simple_linked_listINtB2_16SimpleLinkedListlE3newCs19L4n8JNNMr_18simple_linked_list
FN:16,_RNvMCsiFvAleE1cUa_18simple_linked_listINtB2_16SimpleLinkedListmE3newCs19L4n8JNNMr_18simple_linked_list
FN:36,_RNvMCsiFvAleE1cUa_18simple_linked_listINtB2_16SimpleLinkedListlE4pushCs19L4n8JNNMr_18simple_linked_list
FN:36,_RNvMCsiFvAleE1cUa_18simple_linked_listINtB2_16SimpleLinkedListmE4pushCs19L4n8JNNMr_18simple_linked_list
FN:53,_RNvMCsiFvAleE1cUa_18simple_linked_listINtB2_16SimpleLinkedListmE4peekCs19L4n8JNNMr_18simple_linked_list
FN:45,_RNvMCsiFvAleE1cUa_18simple_linked_listINtB2_16SimpleLinkedListReE3popCs19L4n8JNNMr_18simple_linked_list
FN:46,_RNCNvMCsiFvAleE1cUa_18simple_linked_listINtB4_16SimpleLinkedListmE3pop0Cs19L4n8JNNMr_18simple_linked_list
FN:58,_RNvMCslYxoSM8pqWF_18simple_linked_listINtB2_16SimpleLinkedListpE3revB2_
FN:36,_RNvMCslYxoSM8pqWF_18simple_linked_listINtB2_16SimpleLinkedListpE4pushB2_
FN:45,_RNvMCslYxoSM8pqWF_18simple_linked_listINtB2_16SimpleLinkedListpE3popB2_
FN:97,_RNvXINICslYxoSM8pqWF_18simple_linked_lists0_0pEINtNtCseUNaFxoWMgP_5alloc3vec3VecpEINtNtCskHJcJaiv42W_4core7convert4FromINtB5_16SimpleLinkedListpEE4fromB5_
FN:46,_RNCNvMCslYxoSM8pqWF_18simple_linked_listINtB4_16SimpleLinkedListpE3pop0B4_
FN:16,_RNvMCslYxoSM8pqWF_18simple_linked_listINtB2_16SimpleLinkedListpE3newB2_
FN:53,_RNvMCslYxoSM8pqWF_18simple_linked_listINtB2_16SimpleLinkedListpE4peekB2_
FN:28,_RNvMCslYxoSM8pqWF_18simple_linked_listINtB2_16SimpleLinkedListpE8is_emptyB2_
FN:54,_RNCNvMCslYxoSM8pqWF_18simple_linked_listINtB4_16SimpleLinkedListpE4peek0B4_
FN:32,_RNvMCslYxoSM8pqWF_18simple_linked_listINtB2_16SimpleLinkedListpE3lenB2_
FN:72,_RINvXINICslYxoSM8pqWF_18simple_linked_lists_0pEINtB6_16SimpleLinkedListpEINtNtNtNtCskHJcJaiv42W_4core4iter6traits7collect12FromIteratorpE9from_iterpEB6_
FNDA:1,_RNvXs0_CsiFvAleE1cUa_18simple_linked_listINtNtCseUNaFxoWMgP_5alloc3vec3VeclEINtNtCskHJcJaiv42W_4core7convert4FromINtB5_16SimpleLinkedListlEE4fromCs19L4n8JNNMr_18simple_linked_list
FNDA:1,_RINvXs_CsiFvAleE1cUa_18simple_linked_listINtB5_16SimpleLinkedListReEINtNtNtNtCskHJcJaiv42W_4core4iter6traits7collect12FromIteratorB11_E9from_iterINtNtNtCseUNaFxoWMgP_5alloc3vec5drain5DrainB11_EECs19L4n8JNNMr_18simple_linked_list
FNDA:1,_RNvMCsiFvAleE1cUa_18simple_linked_listINtB2_16SimpleLinkedListReE3newCs19L4n8JNNMr_18simple_linked_list
FNDA:10001,_RNvMCsiFvAleE1cUa_18simple_linked_listINtB2_16SimpleLinkedListmE8is_emptyCs19L4n8JNNMr_18simple_linked_list
FNDA:10006,_RNvMCsiFvAleE1cUa_18simple_linked_listINtB2_16SimpleLinkedListmE3lenCs19L4n8JNNMr_18simple_linked_list
FNDA:1,_RNvMCsiFvAleE1cUa_18simple_linked_listINtB2_16SimpleLinkedListmE3revCs19L4n8JNNMr_18simple_linked_list
FNDA:4961,_RNvMCsiFvAleE1cUa_18simple_linked_listINtB2_16SimpleLinkedListmE3popCs19L4n8JNNMr_18simple_linked_list
FNDA:4,_RNvMCsiFvAleE1cUa_18simple_linked_listINtB2_16SimpleLinkedListReE4pushCs19L4n8JNNMr_18simple_linked_list
FNDA:4,_RNCNvMCsiFvAleE1cUa_18simple_linked_listINtB4_16SimpleLinkedListmE4peek0Cs19L4n8JNNMr_18simple_linked_list
FNDA:4,_RNCNvMCsiFvAleE1cUa_18simple_linked_listINtB4_16SimpleLinkedListReE3pop0Cs19L4n8JNNMr_18simple_linked_list
FNDA:1,_RNvMCsiFvAleE1cUa_18simple_linked_listINtB2_16SimpleLinkedListlE3newCs19L4n8JNNMr_18simple_linked_list
FNDA:8,_RNvMCsiFvAleE1cUa_18simple_linked_listINtB2_16SimpleLinkedListmE3newCs19L4n8JNNMr_18simple_linked_list
FNDA:3,_RNvMCsiFvAleE1cUa_18simple_linked_listINtB2_16SimpleLinkedListlE4pushCs19L4n8JNNMr_18simple_linked_list
FNDA:4964,_RNvMCsiFvAleE1cUa_18simple_linked_listINtB2_16SimpleLinkedListmE4pushCs19L4n8JNNMr_18simple_linked_list
FNDA:6,_RNvMCsiFvAleE1cUa_18simple_linked_listINtB2_16SimpleLinkedListmE4peekCs19L4n8JNNMr_18simple_linked_list
FNDA:4,_RNvMCsiFvAleE1cUa_18simple_linked_listINtB2_16SimpleLinkedListReE3popCs19L4n8JNNMr_18simple_linked_list
FNDA:4959,_RNCNvMCsiFvAleE1cUa_18simple_linked_listINtB4_16SimpleLinkedListmE3pop0Cs19L4n8JNNMr_18simple_linked_list
FNDA:0,_RNvMCslYxoSM8pqWF_18simple_linked_listINtB2_16SimpleLinkedListpE3revB2_
FNDA:0,_RNvMCslYxoSM8pqWF_18simple_linked_listINtB2_16SimpleLinkedListpE4pushB2_
FNDA:0,_RNvMCslYxoSM8pqWF_18simple_linked_listINtB2_16SimpleLinkedListpE3popB2_
FNDA:0,_RNvXINICslYxoSM8pqWF_18simple_linked_lists0_0pEINtNtCseUNaFxoWMgP_5alloc3vec3VecpEINtNtCskHJcJaiv42W_4core7convert4FromINtB5_16SimpleLinkedListpEE4fromB5_
FNDA:0,_RNCNvMCslYxoSM8pqWF_18simple_linked_listINtB4_16SimpleLinkedListpE3pop0B4_
FNDA:0,_RNvMCslYxoSM8pqWF_18simple_linked_listINtB2_16SimpleLinkedListpE3newB2_
FNDA:0,_RNvMCslYxoSM8pqWF_18simple_linked_listINtB2_16SimpleLinkedListpE4peekB2_
FNDA:0,_RNvMCslYxoSM8pqWF_18simple_linked_listINtB2_16SimpleLinkedListpE8is_emptyB2_
FNDA:0,_RNCNvMCslYxoSM8pqWF_18simple_linked_listINtB4_16SimpleLinkedListpE4peek0B4_
FNDA:0,_RNvMCslYxoSM8pqWF_18simple_linked_listINtB2_16SimpleLinkedListpE3lenB2_
FNDA:0,_RINvXINICslYxoSM8pqWF_18simple_linked_lists_0pEINtB6_16SimpleLinkedListpEINtNtNtNtCskHJcJaiv42W_4core4iter6traits7collect12FromIteratorpE9from_iterpEB6_
FNF:11
FNH:11
DA:16,10
DA:17,10
DA:18,10
DA:19,10
DA:20,10
DA:21,10
DA:28,10001
DA:29,10001
DA:30,10001
DA:32,10006
DA:33,10006
DA:34,10006
DA:36,4971
DA:37,4971
DA:38,4971
DA:39,4971
DA:40,4971
DA:41,4971
DA:42,4971
DA:43,4971
DA:45,4965
DA:46,4965
DA:47,4963
DA:48,4963
DA:49,4963
DA:50,4965
DA:51,4965
DA:53,6
DA:54,6
DA:55,6
DA:58,1
DA:59,1
DA:60,1
DA:62,4
DA:63,3
DA:64,3
DA:65,3
DA:67,1
DA:68,1
DA:72,1
DA:73,1
DA:75,5
DA:76,4
DA:77,4
DA:79,1
DA:80,1
DA:97,1
DA:98,1
DA:99,1
DA:101,4
DA:102,3
DA:103,3
DA:104,3
DA:107,1
DA:108,1
DA:109,1
DA:110,1
BRF:0
BRH:0
LF:60
LH:60
end_of_record