SF:/home/vpayno/git_vpayno/exercism-workspace/rust/high-scores/src/lib.rs
FN:15,_RNvMCscorwc19CMRv_11high_scoresNtB2_10HighScores6scores
FN:9,_RNvMCscorwc19CMRv_11high_scoresNtB2_10HighScores3new
FN:19,_RNvMCscorwc19CMRv_11high_scoresNtB2_10HighScores6latest
FN:30,_RNCNvMCscorwc19CMRv_11high_scoresNtB4_10HighScores18personal_top_three0B4_
FN:23,_RNvMCscorwc19CMRv_11high_scoresNtB2_10HighScores13personal_best
FN:3,_RNvXs_Cscorwc19CMRv_11high_scoresNtB4_10HighScoresNtNtCs8zepCCxJ8Q4_4core3fmt5Debug3fmt
FN:27,_RNvMCscorwc19CMRv_11high_scoresNtB2_10HighScores18personal_top_three
FN:15,_RNvMCsjNZkcr9m2Qz_11high_scoresNtB2_10HighScores6scores
FN:9,_RNvMCsjNZkcr9m2Qz_11high_scoresNtB2_10HighScores3new
FN:19,_RNvMCsjNZkcr9m2Qz_11high_scoresNtB2_10HighScores6latest
FN:30,_RNCNvMCsjNZkcr9m2Qz_11high_scoresNtB4_10HighScores18personal_top_three0B4_
FN:23,_RNvMCsjNZkcr9m2Qz_11high_scoresNtB2_10HighScores13personal_best
FN:3,_RNvXs_CsjNZkcr9m2Qz_11high_scoresNtB4_10HighScoresNtNtCs8zepCCxJ8Q4_4core3fmt5Debug3fmt
FN:27,_RNvMCsjNZkcr9m2Qz_11high_scoresNtB2_10HighScores18personal_top_three
FNDA:0,_RNvMCscorwc19CMRv_11high_scoresNtB2_10HighScores6scores
FNDA:0,_RNvMCscorwc19CMRv_11high_scoresNtB2_10HighScores3new
FNDA:0,_RNvMCscorwc19CMRv_11high_scoresNtB2_10HighScores6latest
FNDA:0,_RNCNvMCscorwc19CMRv_11high_scoresNtB4_10HighScores18personal_top_three0B4_
FNDA:0,_RNvMCscorwc19CMRv_11high_scoresNtB2_10HighScores13personal_best
FNDA:0,_RNvXs_Cscorwc19CMRv_11high_scoresNtB4_10HighScoresNtNtCs8zepCCxJ8Q4_4core3fmt5Debug3fmt
FNDA:0,_RNvMCscorwc19CMRv_11high_scoresNtB2_10HighScores18personal_top_three
FNDA:1,_RNvMCsjNZkcr9m2Qz_11high_scoresNtB2_10HighScores6scores
FNDA:11,_RNvMCsjNZkcr9m2Qz_11high_scoresNtB2_10HighScores3new
FNDA:2,_RNvMCsjNZkcr9m2Qz_11high_scoresNtB2_10HighScores6latest
FNDA:63,_RNCNvMCsjNZkcr9m2Qz_11high_scoresNtB4_10HighScores18personal_top_three0B4_
FNDA:2,_RNvMCsjNZkcr9m2Qz_11high_scoresNtB2_10HighScores13personal_best
FNDA:0,_RNvXs_CsjNZkcr9m2Qz_11high_scoresNtB4_10HighScoresNtNtCs8zepCCxJ8Q4_4core3fmt5Debug3fmt
FNDA:6,_RNvMCsjNZkcr9m2Qz_11high_scoresNtB2_10HighScores18personal_top_three
FNF:7
FNH:6
DA:3,0
DA:9,11
DA:10,11
DA:11,11
DA:12,11
DA:13,11
DA:15,1
DA:16,1
DA:17,1
DA:19,2
DA:20,2
DA:21,2
DA:23,2
DA:24,2
DA:25,2
DA:27,6
DA:28,6
DA:29,6
DA:30,63
DA:31,6
DA:32,6
BRF:0
BRH:0
LF:22
LH:21
end_of_record