SF:/home/vpayno/git_vpayno/exercism-workspace/rust/luhn-from/src/lib.rs
FN:6,_RNvXCsbgfpdi1p0Ml_9luhn_fromNtB2_4LuhnINtNtCskHJcJaiv42W_4core7convert4FromNtNtCseUNaFxoWMgP_5alloc6string6StringE4fromCs4J0XuxrSefC_9luhn_from
FN:6,_RNvXCsbgfpdi1p0Ml_9luhn_fromNtB2_4LuhnINtNtCskHJcJaiv42W_4core7convert4FromtE4fromCs4J0XuxrSefC_9luhn_from
FN:6,_RNvXCsbgfpdi1p0Ml_9luhn_fromNtB2_4LuhnINtNtCskHJcJaiv42W_4core7convert4FromyE4fromCs4J0XuxrSefC_9luhn_from
FN:6,_RNvXCsbgfpdi1p0Ml_9luhn_fromNtB2_4LuhnINtNtCskHJcJaiv42W_4core7convert4FromReE4fromCs4J0XuxrSefC_9luhn_from
FN:6,_RNvXCsbgfpdi1p0Ml_9luhn_fromNtB2_4LuhnINtNtCskHJcJaiv42W_4core7convert4FromjE4fromCs4J0XuxrSefC_9luhn_from
FN:6,_RNvXCsbgfpdi1p0Ml_9luhn_fromNtB2_4LuhnINtNtCskHJcJaiv42W_4core7convert4FrommE4fromCs4J0XuxrSefC_9luhn_from
FN:6,_RNvXCsbgfpdi1p0Ml_9luhn_fromNtB2_4LuhnINtNtCskHJcJaiv42W_4core7convert4FromhE4fromCs4J0XuxrSefC_9luhn_from
FN:35,_RNvCsbgfpdi1p0Ml_9luhn_from16step_one_and_two
FN:55,_RNvCsbgfpdi1p0Ml_9luhn_from3sum
FN:59,_RNvCsbgfpdi1p0Ml_9luhn_from29extract_digits_from_str_slice
FN:14,_RNvMs_Csbgfpdi1p0Ml_9luhn_fromNtB4_4Luhn8is_valid
FN:62,_RNCNvCsbgfpdi1p0Ml_9luhn_from29extract_digits_from_str_slices_0B3_
FN:25,_RNvCsbgfpdi1p0Ml_9luhn_from14is_luhn_number
FN:67,_RNvCsbgfpdi1p0Ml_9luhn_from26is_only_numbers_and_spaces
FN:6,_RNvXINICsbgfpdi1p0Ml_9luhn_from0pENtB5_4LuhnINtNtCskHJcJaiv42W_4core7convert4FrompE4fromB5_
FN:61,_RNCNvCsbgfpdi1p0Ml_9luhn_from29extract_digits_from_str_slice0B3_
FN:35,_RNvCsbyip4fuNW2w_9luhn_from16step_one_and_two
FN:62,_RNCNvCsbyip4fuNW2w_9luhn_from29extract_digits_from_str_slices_0B3_
FN:55,_RNvCsbyip4fuNW2w_9luhn_from3sum
FN:6,_RNvXINICsbyip4fuNW2w_9luhn_from0pENtB5_4LuhnINtNtCskHJcJaiv42W_4core7convert4FrompE4fromB5_
FN:59,_RNvCsbyip4fuNW2w_9luhn_from29extract_digits_from_str_slice
FN:14,_RNvMs_Csbyip4fuNW2w_9luhn_fromNtB4_4Luhn8is_valid
FN:25,_RNvCsbyip4fuNW2w_9luhn_from14is_luhn_number
FN:67,_RNvCsbyip4fuNW2w_9luhn_from26is_only_numbers_and_spaces
FN:61,_RNCNvCsbyip4fuNW2w_9luhn_from29extract_digits_from_str_slice0B3_
FNDA:2,_RNvXCsbgfpdi1p0Ml_9luhn_fromNtB2_4LuhnINtNtCskHJcJaiv42W_4core7convert4FromNtNtCseUNaFxoWMgP_5alloc6string6StringE4fromCs4J0XuxrSefC_9luhn_from
FNDA:2,_RNvXCsbgfpdi1p0Ml_9luhn_fromNtB2_4LuhnINtNtCskHJcJaiv42W_4core7convert4FromtE4fromCs4J0XuxrSefC_9luhn_from
FNDA:2,_RNvXCsbgfpdi1p0Ml_9luhn_fromNtB2_4LuhnINtNtCskHJcJaiv42W_4core7convert4FromyE4fromCs4J0XuxrSefC_9luhn_from
FNDA:9,_RNvXCsbgfpdi1p0Ml_9luhn_fromNtB2_4LuhnINtNtCskHJcJaiv42W_4core7convert4FromReE4fromCs4J0XuxrSefC_9luhn_from
FNDA:2,_RNvXCsbgfpdi1p0Ml_9luhn_fromNtB2_4LuhnINtNtCskHJcJaiv42W_4core7convert4FromjE4fromCs4J0XuxrSefC_9luhn_from
FNDA:2,_RNvXCsbgfpdi1p0Ml_9luhn_fromNtB2_4LuhnINtNtCskHJcJaiv42W_4core7convert4FrommE4fromCs4J0XuxrSefC_9luhn_from
FNDA:2,_RNvXCsbgfpdi1p0Ml_9luhn_fromNtB2_4LuhnINtNtCskHJcJaiv42W_4core7convert4FromhE4fromCs4J0XuxrSefC_9luhn_from
FNDA:19,_RNvCsbgfpdi1p0Ml_9luhn_from16step_one_and_two
FNDA:19,_RNvCsbgfpdi1p0Ml_9luhn_from3sum
FNDA:19,_RNvCsbgfpdi1p0Ml_9luhn_from29extract_digits_from_str_slice
FNDA:21,_RNvMs_Csbgfpdi1p0Ml_9luhn_fromNtB4_4Luhn8is_valid
FNDA:170,_RNCNvCsbgfpdi1p0Ml_9luhn_from29extract_digits_from_str_slices_0B3_
FNDA:19,_RNvCsbgfpdi1p0Ml_9luhn_from14is_luhn_number
FNDA:20,_RNvCsbgfpdi1p0Ml_9luhn_from26is_only_numbers_and_spaces
FNDA:0,_RNvXINICsbgfpdi1p0Ml_9luhn_from0pENtB5_4LuhnINtNtCskHJcJaiv42W_4core7convert4FrompE4fromB5_
FNDA:185,_RNCNvCsbgfpdi1p0Ml_9luhn_from29extract_digits_from_str_slice0B3_
FNDA:0,_RNvCsbyip4fuNW2w_9luhn_from16step_one_and_two
FNDA:0,_RNCNvCsbyip4fuNW2w_9luhn_from29extract_digits_from_str_slices_0B3_
FNDA:0,_RNvCsbyip4fuNW2w_9luhn_from3sum
FNDA:0,_RNvXINICsbyip4fuNW2w_9luhn_from0pENtB5_4LuhnINtNtCskHJcJaiv42W_4core7convert4FrompE4fromB5_
FNDA:0,_RNvCsbyip4fuNW2w_9luhn_from29extract_digits_from_str_slice
FNDA:0,_RNvMs_Csbyip4fuNW2w_9luhn_fromNtB4_4Luhn8is_valid
FNDA:0,_RNvCsbyip4fuNW2w_9luhn_from14is_luhn_number
FNDA:0,_RNvCsbyip4fuNW2w_9luhn_from26is_only_numbers_and_spaces
FNDA:0,_RNCNvCsbyip4fuNW2w_9luhn_from29extract_digits_from_str_slice0B3_
FNF:9
FNH:9
DA:6,21
DA:7,21
DA:8,21
DA:9,21
DA:10,21
DA:14,21
DA:15,21
DA:16,21
DA:17,20
DA:18,20
DA:19,20
DA:20,19
DA:22,21
DA:25,19
DA:26,19
DA:27,19
DA:28,19
DA:29,19
DA:30,19
DA:31,19
DA:32,19
DA:33,19
DA:35,19
DA:36,19
DA:38,80
DA:39,79
DA:40,79
DA:41,79
DA:42,34
DA:43,45
DA:45,79
DA:46,79
DA:47,79
DA:48,18
DA:49,61
DA:52,19
DA:53,19
DA:55,19
DA:56,19
DA:57,19
DA:59,19
DA:60,19
DA:61,185
DA:62,170
DA:63,19
DA:64,19
DA:65,19
DA:67,20
DA:68,189
DA:69,189
DA:70,1
DA:71,188
DA:74,19
DA:75,20
BRF:0
BRH:0
LF:56
LH:56
end_of_record