SF:/home/vpayno/git_vpayno/exercism-workspace/rust/semi-structured-logs/src/lib.rs
FN:23,_RNvCsfWXrn5J9T5y_20semi_structured_logs4info
FN:31,_RNvCsfWXrn5J9T5y_20semi_structured_logs5error
FN:27,_RNvCsfWXrn5J9T5y_20semi_structured_logs4warn
FN:35,_RNvCsfWXrn5J9T5y_20semi_structured_logs5debug
FN:3,_RNvXCsfWXrn5J9T5y_20semi_structured_logsNtB2_8LogLevelNtNtCskHJcJaiv42W_4core3fmt5Debug3fmt
FN:12,_RNvCsfWXrn5J9T5y_20semi_structured_logs3log
FN:23,_RNvCslsKOujzi6MT_20semi_structured_logs4info
FN:31,_RNvCslsKOujzi6MT_20semi_structured_logs5error
FN:27,_RNvCslsKOujzi6MT_20semi_structured_logs4warn
FN:3,_RNvXCslsKOujzi6MT_20semi_structured_logsNtB2_8LogLevelNtNtCskHJcJaiv42W_4core3fmt5Debug3fmt
FN:35,_RNvCslsKOujzi6MT_20semi_structured_logs5debug
FN:12,_RNvCslsKOujzi6MT_20semi_structured_logs3log
FNDA:1,_RNvCsfWXrn5J9T5y_20semi_structured_logs4info
FNDA:1,_RNvCsfWXrn5J9T5y_20semi_structured_logs5error
FNDA:1,_RNvCsfWXrn5J9T5y_20semi_structured_logs4warn
FNDA:1,_RNvCsfWXrn5J9T5y_20semi_structured_logs5debug
FNDA:8,_RNvXCsfWXrn5J9T5y_20semi_structured_logsNtB2_8LogLevelNtNtCskHJcJaiv42W_4core3fmt5Debug3fmt
FNDA:8,_RNvCsfWXrn5J9T5y_20semi_structured_logs3log
FNDA:0,_RNvCslsKOujzi6MT_20semi_structured_logs4info
FNDA:0,_RNvCslsKOujzi6MT_20semi_structured_logs5error
FNDA:0,_RNvCslsKOujzi6MT_20semi_structured_logs4warn
FNDA:0,_RNvXCslsKOujzi6MT_20semi_structured_logsNtB2_8LogLevelNtNtCskHJcJaiv42W_4core3fmt5Debug3fmt
FNDA:0,_RNvCslsKOujzi6MT_20semi_structured_logs5debug
FNDA:0,_RNvCslsKOujzi6MT_20semi_structured_logs3log
FNF:6
FNH:6
DA:3,8
DA:12,8
DA:13,8
DA:14,8
DA:15,8
DA:16,8
DA:17,8
DA:18,8
DA:19,8
DA:20,8
DA:21,8
DA:23,1
DA:24,1
DA:25,1
DA:27,1
DA:28,1
DA:29,1
DA:31,1
DA:32,1
DA:33,1
DA:35,1
DA:36,1
DA:37,1
BRF:0
BRH:0
LF:23
LH:23
end_of_record